target datalayout = "e-m:e-p270:32:32-p271:32:32-p272:64:64-i64:64-i128:128-f80:128-n8:16:32:64-S128"
target triple = "x86_64-pc-linux-gnu"

@.str.6 = private unnamed_addr constant [23 x i8] c"0x%012lx-0x%012lx-%08x\00", align 1

; Function Attrs: nounwind uwtable
define internal i32 @format_name(ptr noundef %0, i64 noundef %1, i64 noundef %2) #0 {
  %4 = alloca ptr, align 8
  %5 = alloca i64, align 8
  %6 = alloca i64, align 8
  %7 = alloca [100 x i8], align 16
  %8 = alloca i32, align 4
  store ptr %0, ptr %4, align 8, !tbaa !58
  store i64 %1, ptr %5, align 8, !tbaa !21
  store i64 %2, ptr %6, align 8, !tbaa !21
  call void @llvm.lifetime.start.p0(i64 100, ptr %7) #10
  call void @llvm.lifetime.start.p0(i64 4, ptr %8) #10
  %9 = call i32 @git_rand(i32 noundef 1)
  store i32 %9, ptr %8, align 4, !tbaa !15
  %10 = getelementptr inbounds [100 x i8], ptr %7, i64 0, i64 0
  %11 = load i64, ptr %5, align 8, !tbaa !21
  %12 = load i64, ptr %6, align 8, !tbaa !21
  %13 = load i32, ptr %8, align 4, !tbaa !15
  %14 = call i32 (ptr, i64, ptr, ...) @snprintf(ptr noundef %10, i64 noundef 100, ptr noundef @.str.6, i64 noundef %11, i64 noundef %12, i32 noundef %13) #10
  %15 = load ptr, ptr %4, align 8, !tbaa !58
  call void @reftable_buf_reset(ptr noundef %15)
  %16 = load ptr, ptr %4, align 8, !tbaa !58
  %17 = getelementptr inbounds [100 x i8], ptr %7, i64 0, i64 0
  %18 = call i32 @reftable_buf_addstr(ptr noundef %16, ptr noundef %17)
  call void @llvm.lifetime.end.p0(i64 4, ptr %8) #10
  call void @llvm.lifetime.end.p0(i64 100, ptr %7) #10
  ret i32 %18
}