; Function Attrs: nounwind uwtable
define internal fastcc i32 @format_name(ptr noundef nonnull %0, i64 noundef %1, i64 noundef %2) unnamed_addr #0 {
  %4 = alloca [100 x i8], align 16
  call void @llvm.lifetime.start.p0(i64 100, ptr nonnull %4) #16
  %5 = tail call i32 @git_rand(i32 noundef 1) #16
  %6 = call i32 (ptr, i64, ptr, ...) @snprintf(ptr noundef nonnull dereferenceable(1) %4, i64 noundef 100, ptr noundef nonnull @.str.6, i64 noundef %1, i64 noundef %2, i32 noundef %5) #16
  tail call void @reftable_buf_reset(ptr noundef nonnull %0) #16
  %7 = call i32 @reftable_buf_addstr(ptr noundef nonnull %0, ptr noundef nonnull %4) #16
  call void @llvm.lifetime.end.p0(i64 100, ptr nonnull %4) #16
  ret i32 %7
}